///////////////////////////////////////////////////////////////////////////////
//                                                                            /
// IAR ANSI C/C++ Compiler V6.60.1.5097/W32 for ARM     14/May/2014  22:54:12 /
// Copyright 1999-2013 IAR Systems AB.                                        /
//                                                                            /
//    Cpu mode     =  thumb                                                   /
//    Endian       =  little                                                  /
//    Source file  =  C:\Users\huang\Desktop\k60\lib\common\printf.c          /
//    Command line =  C:\Users\huang\Desktop\k60\lib\common\printf.c -D IAR   /
//                    -D LPLD_K60 -lCN C:\Users\huang\Desktop\k60\project\k60 /
//                    \iar\RAM\List\ -lB C:\Users\huang\Desktop\k60\project\k /
//                    60\iar\RAM\List\ -o C:\Users\huang\Desktop\k60\project\ /
//                    k60\iar\RAM\Obj\ --no_cse --no_unroll --no_inline       /
//                    --no_code_motion --no_tbaa --no_clustering              /
//                    --no_scheduling --debug --endian=little                 /
//                    --cpu=Cortex-M4 -e --fpu=None --dlib_config             /
//                    "C:\Program Files (x86)\IAR Systems\Embedded Workbench  /
//                    6.5\arm\INC\c\DLib_Config_Normal.h" -I                  /
//                    C:\Users\huang\Desktop\k60\project\k60\iar\..\app\ -I   /
//                    C:\Users\huang\Desktop\k60\project\k60\iar\..\..\..\lib /
//                    \common\ -I C:\Users\huang\Desktop\k60\project\k60\iar\ /
//                    ..\..\..\lib\cpu\ -I C:\Users\huang\Desktop\k60\project /
//                    \k60\iar\..\..\..\lib\cpu\headers\ -I                   /
//                    C:\Users\huang\Desktop\k60\project\k60\iar\..\..\..\lib /
//                    \drivers\adc16\ -I C:\Users\huang\Desktop\k60\project\k /
//                    60\iar\..\..\..\lib\drivers\enet\ -I                    /
//                    C:\Users\huang\Desktop\k60\project\k60\iar\..\..\..\lib /
//                    \drivers\lptmr\ -I C:\Users\huang\Desktop\k60\project\k /
//                    60\iar\..\..\..\lib\drivers\mcg\ -I                     /
//                    C:\Users\huang\Desktop\k60\project\k60\iar\..\..\..\lib /
//                    \drivers\pmc\ -I C:\Users\huang\Desktop\k60\project\k60 /
//                    \iar\..\..\..\lib\drivers\rtc\ -I                       /
//                    C:\Users\huang\Desktop\k60\project\k60\iar\..\..\..\lib /
//                    \drivers\uart\ -I C:\Users\huang\Desktop\k60\project\k6 /
//                    0\iar\..\..\..\lib\drivers\wdog\ -I                     /
//                    C:\Users\huang\Desktop\k60\project\k60\iar\..\..\..\lib /
//                    \platforms\ -I C:\Users\huang\Desktop\k60\project\k60\i /
//                    ar\..\..\..\lib\LPLD\ -I C:\Users\huang\Desktop\k60\pro /
//                    ject\k60\iar\..\..\..\lib\iar_config_files\ -Ol         /
//    List file    =  C:\Users\huang\Desktop\k60\project\k60\iar\RAM\List\pri /
//                    ntf.s                                                   /
//                                                                            /
//                                                                            /
///////////////////////////////////////////////////////////////////////////////

        #define SHT_PROGBITS 0x1

        EXTERN out_char
        EXTERN strlen

        PUBLIC printf
        PUBLIC printk
        PUBLIC sprintf

// C:\Users\huang\Desktop\k60\lib\common\printf.c
//    1 /*
//    2  * File:        printk.c
//    3  * Purpose:     The standard C library routine printf(), but without
//    4  *              all the baggage.
//    5  */
//    6 
//    7 #include "common.h"
//    8 #include <stdarg.h>
//    9 
//   10 /********************************************************************/
//   11 
//   12 typedef struct
//   13 {
//   14     int dest;
//   15     void (*func)(char);
//   16     char *loc;
//   17 } PRINTK_INFO;
//   18 
//   19 int 
//   20 printk (PRINTK_INFO *, const char *, va_list);
//   21 
//   22 /********************************************************************/
//   23 
//   24 #define DEST_CONSOLE    (1)
//   25 #define DEST_STRING     (2)
//   26 
//   27 #define FLAGS_MINUS     (0x01)
//   28 #define FLAGS_PLUS      (0x02)
//   29 #define FLAGS_SPACE     (0x04)
//   30 #define FLAGS_ZERO      (0x08)
//   31 #define FLAGS_POUND     (0x10)
//   32 
//   33 #define IS_FLAG_MINUS(a)    (a & FLAGS_MINUS)
//   34 #define IS_FLAG_PLUS(a)     (a & FLAGS_PLUS)
//   35 #define IS_FLAG_SPACE(a)    (a & FLAGS_SPACE)
//   36 #define IS_FLAG_ZERO(a)     (a & FLAGS_ZERO)
//   37 #define IS_FLAG_POUND(a)    (a & FLAGS_POUND)
//   38 
//   39 #define LENMOD_h        (0x01)
//   40 #define LENMOD_l        (0x02)
//   41 #define LENMOD_L        (0x04)
//   42 
//   43 #define IS_LENMOD_h(a)  (a & LENMOD_h)
//   44 #define IS_LENMOD_l(a)  (a & LENMOD_l)
//   45 #define IS_LENMOD_L(a)  (a & LENMOD_L)
//   46 
//   47 #define FMT_d   (0x0001)
//   48 #define FMT_o   (0x0002)
//   49 #define FMT_x   (0x0004)
//   50 #define FMT_X   (0x0008)
//   51 #define FMT_u   (0x0010)
//   52 #define FMT_c   (0x0020)
//   53 #define FMT_s   (0x0040)
//   54 #define FMT_p   (0x0080)
//   55 #define FMT_n   (0x0100)
//   56 
//   57 #define IS_FMT_d(a)     (a & FMT_d)
//   58 #define IS_FMT_o(a)     (a & FMT_o)
//   59 #define IS_FMT_x(a)     (a & FMT_x)
//   60 #define IS_FMT_X(a)     (a & FMT_X)
//   61 #define IS_FMT_u(a)     (a & FMT_u)
//   62 #define IS_FMT_c(a)     (a & FMT_c)
//   63 #define IS_FMT_s(a)     (a & FMT_s)
//   64 #define IS_FMT_p(a)     (a & FMT_p)
//   65 #define IS_FMT_n(a)     (a & FMT_n)
//   66 
//   67 /********************************************************************/

        SECTION `.text`:CODE:NOROOT(1)
        THUMB
//   68 static void
//   69 printk_putc (int c, int *count, PRINTK_INFO *info)
//   70 {
printk_putc:
        PUSH     {R4,LR}
        MOVS     R4,R1
//   71     switch (info->dest)
        LDR      R1,[R2, #+0]
        CMP      R1,#+1
        BEQ.N    ??printk_putc_0
        CMP      R1,#+2
        BEQ.N    ??printk_putc_1
        B.N      ??printk_putc_2
//   72     {
//   73         case DEST_CONSOLE:
//   74             info->func((char)c);
??printk_putc_0:
        UXTB     R0,R0            ;; ZeroExt  R0,R0,#+24,#+24
        LDR      R1,[R2, #+4]
        BLX      R1
//   75             break;
        B.N      ??printk_putc_3
//   76         case DEST_STRING:
//   77             *(info->loc) = (unsigned char)c;
??printk_putc_1:
        LDR      R1,[R2, #+8]
        STRB     R0,[R1, #+0]
//   78             ++(info->loc);
        LDR      R0,[R2, #+8]
        ADDS     R0,R0,#+1
        STR      R0,[R2, #+8]
//   79             break;
        B.N      ??printk_putc_3
//   80         default:
//   81             break;
//   82     }
//   83     *count += 1;
??printk_putc_2:
??printk_putc_3:
        LDR      R0,[R4, #+0]
        ADDS     R0,R0,#+1
        STR      R0,[R4, #+0]
//   84 }
        POP      {R4,PC}          ;; return
//   85 
//   86 /********************************************************************/

        SECTION `.text`:CODE:NOROOT(1)
        THUMB
//   87 static int
//   88 printk_mknumstr (char *numstr, void *nump, int neg, int radix)
//   89 {
printk_mknumstr:
        PUSH     {R4,R5}
        MOVS     R4,R3
//   90     int a,b,c;
//   91     unsigned int ua,ub,uc;
//   92 
//   93     int nlen;
//   94     char *nstrp;
//   95 
//   96     nlen = 0;
        MOVS     R3,#+0
//   97     nstrp = numstr;
//   98     *nstrp++ = '\0';
        MOVS     R5,#+0
        STRB     R5,[R0, #+0]
        ADDS     R0,R0,#+1
//   99 
//  100     if (neg)
        CMP      R2,#+0
        BEQ.N    ??printk_mknumstr_0
//  101     {
//  102         a = *(int *)nump;
        LDR      R1,[R1, #+0]
//  103         if (a == 0)
        CMP      R1,#+0
        BNE.N    ??printk_mknumstr_1
//  104         {
//  105             *nstrp = '0';
        MOVS     R1,#+48
        STRB     R1,[R0, #+0]
//  106             ++nlen;
        ADDS     R3,R3,#+1
//  107             goto done;
//  108         }
//  109         while (a != 0)
//  110         {
//  111             b = (int)a / (int)radix;
//  112             c = (int)a - ((int)b * (int)radix);
//  113             if (c < 0)
//  114             {
//  115                 c = ~c + 1 + '0';
//  116             }
//  117             else
//  118             {
//  119                 c = c + '0';
//  120             }
//  121             a = b;
//  122             *nstrp++ = (char)c;
//  123             ++nlen;
//  124         }
//  125     }
//  126     else
//  127     {
//  128         ua = *(unsigned int *)nump;
//  129         if (ua == 0)
//  130         {
//  131             *nstrp = '0';
//  132             ++nlen;
//  133             goto done;
//  134         }
//  135         while (ua != 0)
//  136         {
//  137             ub = (unsigned int)ua / (unsigned int)radix;
//  138             uc = (unsigned int)ua - ((unsigned int)ub * (unsigned int)radix);
//  139             if (uc < 10)
//  140             {
//  141                 uc = uc + '0';
//  142             }
//  143             else
//  144             {
//  145                 uc = uc - 10 + 'A';
//  146             }
//  147             ua = ub;
//  148             *nstrp++ = (char)uc;
//  149             ++nlen;
//  150         }
//  151     }
//  152     done:
//  153     return nlen;
??printk_mknumstr_2:
        MOVS     R0,R3
        POP      {R4,R5}
        BX       LR               ;; return
??printk_mknumstr_3:
        ADDS     R5,R5,#+48
??printk_mknumstr_4:
        MOVS     R1,R2
        STRB     R5,[R0, #+0]
        ADDS     R0,R0,#+1
        ADDS     R3,R3,#+1
??printk_mknumstr_1:
        CMP      R1,#+0
        BEQ.N    ??printk_mknumstr_2
        SDIV     R2,R1,R4
        MLS      R5,R4,R2,R1
        CMP      R5,#+0
        BPL.N    ??printk_mknumstr_3
        MVNS     R1,R5
        ADDS     R5,R1,#+49
        B.N      ??printk_mknumstr_4
??printk_mknumstr_0:
        LDR      R1,[R1, #+0]
        CMP      R1,#+0
        BNE.N    ??printk_mknumstr_5
        MOVS     R1,#+48
        STRB     R1,[R0, #+0]
        ADDS     R3,R3,#+1
        B.N      ??printk_mknumstr_2
??printk_mknumstr_6:
        ADDS     R5,R5,#+55
??printk_mknumstr_7:
        MOVS     R1,R2
        STRB     R5,[R0, #+0]
        ADDS     R0,R0,#+1
        ADDS     R3,R3,#+1
??printk_mknumstr_5:
        CMP      R1,#+0
        BEQ.N    ??printk_mknumstr_2
        UDIV     R2,R1,R4
        MLS      R5,R4,R2,R1
        CMP      R5,#+10
        BCS.N    ??printk_mknumstr_6
        ADDS     R5,R5,#+48
        B.N      ??printk_mknumstr_7
//  154 }
//  155 
//  156 /********************************************************************/

        SECTION `.text`:CODE:NOROOT(1)
        THUMB
//  157 static void
//  158 printk_pad_zero (int curlen, int field_width, int *count, PRINTK_INFO *info)
//  159 {
printk_pad_zero:
        PUSH     {R3-R7,LR}
        MOVS     R4,R0
        MOVS     R5,R1
        MOVS     R6,R2
        MOVS     R7,R3
//  160     int i;
//  161 
//  162     for (i = curlen; i < field_width; i++)
        B.N      ??printk_pad_zero_0
//  163     {
//  164         printk_putc('0',count, info);
??printk_pad_zero_1:
        MOVS     R2,R7
        MOVS     R1,R6
        MOVS     R0,#+48
        BL       printk_putc
//  165     }
        ADDS     R4,R4,#+1
??printk_pad_zero_0:
        CMP      R4,R5
        BLT.N    ??printk_pad_zero_1
//  166 }
        POP      {R0,R4-R7,PC}    ;; return
//  167 
//  168 /********************************************************************/

        SECTION `.text`:CODE:NOROOT(1)
        THUMB
//  169 static void
//  170 printk_pad_space (int curlen, int field_width, int *count, PRINTK_INFO *info)
//  171 {
printk_pad_space:
        PUSH     {R3-R7,LR}
        MOVS     R4,R0
        MOVS     R5,R1
        MOVS     R6,R2
        MOVS     R7,R3
//  172     int i;
//  173 
//  174     for (i = curlen; i < field_width; i++)
        B.N      ??printk_pad_space_0
//  175     {
//  176         printk_putc(' ',count, info);
??printk_pad_space_1:
        MOVS     R2,R7
        MOVS     R1,R6
        MOVS     R0,#+32
        BL       printk_putc
//  177     }
        ADDS     R4,R4,#+1
??printk_pad_space_0:
        CMP      R4,R5
        BLT.N    ??printk_pad_space_1
//  178 }
        POP      {R0,R4-R7,PC}    ;; return
//  179 
//  180 /********************************************************************/

        SECTION `.text`:CODE:NOROOT(1)
        THUMB
//  181 int
//  182 printk (PRINTK_INFO *info, const char *fmt, va_list ap)
//  183 {
printk:
        PUSH     {R4-R11,LR}
        SUB      SP,SP,#+52
        MOVS     R5,R0
        MOVS     R6,R2
//  184     /* va_list ap; */
//  185     char *p;
//  186     int c;
//  187 
//  188     char vstr[33];
//  189     char *vstrp;
//  190     int vlen;
//  191 
//  192     int done;
//  193     int count = 0;
        MOVS     R0,#+0
        STR      R0,[SP, #+0]
//  194 
//  195     int flags_used;
//  196     int field_width;
//  197 #if 0
//  198     int precision_used;
//  199     int precision_width;
//  200     int length_modifier;
//  201 #endif
//  202 
//  203     int ival;
//  204     int schar, dschar;
//  205     int *ivalp;
//  206     char *sval;
//  207     int cval;
//  208     unsigned int uval;
//  209 
//  210     /*
//  211      * Start parsing apart the format string and display appropriate
//  212      * formats and data.
//  213      */
//  214     for (p = (char *)fmt; (c = *p) != 0; p++)
        MOVS     R4,R1
        B.N      ??printk_0
//  215     {
//  216         /*
//  217          * All formats begin with a '%' marker.  Special chars like
//  218          * '\n' or '\t' are normally converted to the appropriate
//  219          * character by the __compiler__.  Thus, no need for this
//  220          * routine to account for the '\' character.
//  221          */
//  222         if (c != '%')
//  223         {
//  224             /*
//  225              * This needs to be replaced with something like
//  226              * 'out_char()' or call an OS routine.
//  227              */
//  228 #ifndef UNIX_DEBUG
//  229             if (c != '\n')
//  230             {
//  231                 printk_putc(c, &count, info);
//  232             }
//  233             else
//  234             {
//  235                 printk_putc(0x0D /* CR */, &count, info);
//  236                 printk_putc(0x0A /* LF */, &count, info);
//  237             }
//  238 #else
//  239             printk_putc(c, &count, info);
//  240 #endif
//  241 
//  242             /*
//  243              * By using 'continue', the next iteration of the loop
//  244              * is used, skipping the code that follows.
//  245              */
//  246             continue;
//  247         }
//  248 
//  249         /*
//  250          * First check for specification modifier flags.
//  251          */
//  252         flags_used = 0;
//  253         done = FALSE;
//  254         while (!done)
//  255         {
//  256             switch (/* c = */ *++p)
//  257             {
//  258                 case '-':
//  259                     flags_used |= FLAGS_MINUS;
//  260                     break;
//  261                 case '+':
//  262                     flags_used |= FLAGS_PLUS;
//  263                     break;
//  264                 case ' ':
//  265                     flags_used |= FLAGS_SPACE;
//  266                     break;
//  267                 case '0':
//  268                     flags_used |= FLAGS_ZERO;
//  269                     break;
//  270                 case '#':
//  271                     flags_used |= FLAGS_POUND;
//  272                     break;
//  273                 default:
//  274                     /* we've gone one char too far */
//  275                     --p;
//  276                     done = TRUE;
//  277                     break;
//  278             }
//  279         }
//  280 
//  281         /*
//  282          * Next check for minimum field width.
//  283          */
//  284         field_width = 0;
//  285         done = FALSE;
//  286         while (!done)
//  287         {
//  288             switch (c = *++p)
//  289             {
//  290                 case '0':
//  291                 case '1':
//  292                 case '2':
//  293                 case '3':
//  294                 case '4':
//  295                 case '5':
//  296                 case '6':
//  297                 case '7':
//  298                 case '8':
//  299                 case '9':
//  300                     field_width = (field_width * 10) + (c - '0');
//  301                     break;
//  302                 default:
//  303                     /* we've gone one char too far */
//  304                     --p;
//  305                     done = TRUE;
//  306                     break;
//  307             }
//  308         }
//  309 
//  310         /*
//  311          * Next check for the width and precision field separator.
//  312          */
//  313         if (/* (c = *++p) */ *++p == '.')
//  314         {
//  315             /* precision_used = TRUE; */
//  316 
//  317             /*
//  318              * Must get precision field width, if present.
//  319              */
//  320             /* precision_width = 0; */
//  321             done = FALSE;
//  322             while (!done)
//  323             {
//  324                 switch (/* c = uncomment if used below */ *++p)
//  325                 {
//  326                     case '0':
//  327                     case '1':
//  328                     case '2':
//  329                     case '3':
//  330                     case '4':
//  331                     case '5':
//  332                     case '6':
//  333                     case '7':
//  334                     case '8':
//  335                     case '9':
//  336 #if 0
//  337                         precision_width = (precision_width * 10) +
//  338                             (c - '0');
//  339 #endif
//  340                         break;
//  341                     default:
//  342                         /* we've gone one char too far */
//  343                         --p;
//  344                         done = TRUE;
//  345                         break;
//  346                 }
//  347             }
//  348         }
//  349         else
//  350         {
//  351             /* we've gone one char too far */
//  352             --p;
//  353 #if 0
//  354             precision_used = FALSE;
//  355             precision_width = 0;
//  356 #endif
//  357         }
//  358 
//  359         /*
//  360          * Check for the length modifier.
//  361          */
//  362         /* length_modifier = 0; */
//  363         switch (/* c = */ *++p)
//  364         {
//  365             case 'h':
//  366                 /* length_modifier |= LENMOD_h; */
//  367                 break;
//  368             case 'l':
//  369                 /* length_modifier |= LENMOD_l; */
//  370                 break;
//  371             case 'L':
//  372                 /* length_modifier |= LENMOD_L; */
//  373                 break;
//  374             default:
//  375                 /* we've gone one char too far */
//  376                 --p;
//  377                 break;
//  378         }
//  379 
//  380         /*
//  381          * Now we're ready to examine the format.
//  382          */
//  383         switch (c = *++p)
//  384         {
//  385             case 'd':
//  386             case 'i':
//  387                 ival = (int)va_arg(ap, int);
//  388                 vlen = printk_mknumstr(vstr,&ival,TRUE,10);
//  389                 vstrp = &vstr[vlen];
//  390 
//  391                 if (ival < 0)
//  392                 {
//  393                     schar = '-';
//  394                     ++vlen;
//  395                 }
//  396                 else
//  397                 {
//  398                     if (IS_FLAG_PLUS(flags_used))
//  399                     {
//  400                         schar = '+';
//  401                         ++vlen;
//  402                     }
//  403                     else
//  404                     {
//  405                         if (IS_FLAG_SPACE(flags_used))
//  406                         {
//  407                             schar = ' ';
//  408                             ++vlen;
//  409                         }
//  410                         else
//  411                         {
//  412                             schar = 0;
//  413                         }
//  414                     }
//  415                 }
//  416                 dschar = FALSE;
//  417             
//  418                 /*
//  419                  * do the ZERO pad.
//  420                  */
//  421                 if (IS_FLAG_ZERO(flags_used))
//  422                 {
//  423                     if (schar)
//  424                         printk_putc(schar, &count, info);
//  425                     dschar = TRUE;
//  426             
//  427                     printk_pad_zero (vlen, field_width, &count, info);
//  428                     vlen = field_width;
//  429                 }
//  430                 else
//  431                 {
//  432                     if (!IS_FLAG_MINUS(flags_used))
//  433                     {
//  434                         printk_pad_space (vlen, field_width, &count, info);
//  435             
//  436                         if (schar)
//  437                             printk_putc(schar, &count, info);
//  438                         dschar = TRUE;
//  439                     }
//  440                 }
//  441             
//  442                 /* the string was built in reverse order, now display in */
//  443                 /* correct order */
//  444                 if (!dschar && schar)
//  445                 {
//  446                     printk_putc(schar, &count, info);
//  447                 }
//  448                 goto cont_xd;
//  449 
//  450             case 'x':
//  451             case 'X':
//  452                 uval = (unsigned int)va_arg(ap, unsigned int);
//  453                 vlen = printk_mknumstr(vstr,&uval,FALSE,16);
//  454                 vstrp = &vstr[vlen];
//  455 
//  456                 dschar = FALSE;
//  457                 if (IS_FLAG_ZERO(flags_used))
//  458                 {
//  459                     if (IS_FLAG_POUND(flags_used))
//  460                     {
//  461                         printk_putc('0', &count, info);
//  462                         printk_putc('x', &count, info);
//  463                         /*vlen += 2;*/
//  464                         dschar = TRUE;
//  465                     }
//  466                     printk_pad_zero (vlen, field_width, &count, info);
//  467                     vlen = field_width;
//  468                 }
//  469                 else
//  470                 {
//  471                     if (!IS_FLAG_MINUS(flags_used))
//  472                     {
//  473                         if (IS_FLAG_POUND(flags_used))
//  474                         {
//  475                             vlen += 2;
//  476                         }
//  477                         printk_pad_space (vlen, field_width, &count, info);
//  478                         if (IS_FLAG_POUND(flags_used))
//  479                         {
//  480                             printk_putc('0', &count, info);
//  481                             printk_putc('x', &count, info);
//  482                             dschar = TRUE;
//  483                         }
//  484                     }
//  485                 }
//  486 
//  487                 if ((IS_FLAG_POUND(flags_used)) && !dschar)
//  488                 {
//  489                     printk_putc('0', &count, info);
//  490                     printk_putc('x', &count, info);
//  491                     vlen += 2;
//  492                 }
//  493                 goto cont_xd;
//  494 
//  495             case 'o':
//  496                 uval = (unsigned int)va_arg(ap, unsigned int);
//  497                 vlen = printk_mknumstr(vstr,&uval,FALSE,8);
//  498                 goto cont_u;
//  499             case 'b':
//  500                 uval = (unsigned int)va_arg(ap, unsigned int);
//  501                 vlen = printk_mknumstr(vstr,&uval,FALSE,2);
//  502                 goto cont_u;
//  503             case 'p':
//  504                 uval = (unsigned int)va_arg(ap, void *);
//  505                 vlen = printk_mknumstr(vstr,&uval,FALSE,16);
//  506                 goto cont_u;
//  507             case 'u':
//  508                 uval = (unsigned int)va_arg(ap, unsigned int);
//  509                 vlen = printk_mknumstr(vstr,&uval,FALSE,10);
//  510 
//  511                 cont_u:
//  512                     vstrp = &vstr[vlen];
//  513 
//  514                     if (IS_FLAG_ZERO(flags_used))
//  515                     {
//  516                         printk_pad_zero (vlen, field_width, &count, info);
//  517                         vlen = field_width;
//  518                     }
//  519                     else
//  520                     {
//  521                         if (!IS_FLAG_MINUS(flags_used))
//  522                         {
//  523                             printk_pad_space (vlen, field_width, &count, info);
//  524                         }
//  525                     }
//  526 
//  527                 cont_xd:
//  528                     while (*vstrp)
//  529                         printk_putc(*vstrp--, &count, info);
//  530 
//  531                     if (IS_FLAG_MINUS(flags_used))
//  532                     {
//  533                         printk_pad_space (vlen, field_width, &count, info);
//  534                     }
//  535                 break;
//  536 
//  537             case 'c':
//  538                 cval = (char)va_arg(ap, unsigned int);
//  539                 printk_putc(cval,&count, info);
//  540                 break;
//  541             case 's':
//  542                 sval = (char *)va_arg(ap, char *);
//  543                 if (sval)
//  544                 {
//  545                     vlen = strlen(sval);
//  546                     if (!IS_FLAG_MINUS(flags_used))
//  547                     {
//  548                         printk_pad_space (vlen, field_width, &count, info);
//  549                     }
//  550                     while (*sval)
//  551                         printk_putc(*sval++,&count, info);
//  552                     if (IS_FLAG_MINUS(flags_used))
//  553                     {
//  554                         printk_pad_space (vlen, field_width, &count, info);
//  555                     }
//  556                 }
//  557                 break;
//  558             case 'n':
//  559                 ivalp = (int *)va_arg(ap, int *);
//  560                 *ivalp = count;
//  561                 break;
//  562             default:
//  563                 printk_putc(c,&count, info);
??printk_1:
        MOVS     R2,R5
        ADD      R1,SP,#+0
        MOVS     R0,R3
        BL       printk_putc
//  564                 break;
??printk_2:
        ADDS     R4,R4,#+1
??printk_0:
        LDRB     R3,[R4, #+0]
        CMP      R3,#+0
        BEQ.W    ??printk_3
        CMP      R3,#+37
        BEQ.N    ??printk_4
        CMP      R3,#+10
        BEQ.N    ??printk_5
        MOVS     R2,R5
        ADD      R1,SP,#+0
        MOVS     R0,R3
        BL       printk_putc
        B.N      ??printk_6
??printk_5:
        MOVS     R2,R5
        ADD      R1,SP,#+0
        MOVS     R0,#+13
        BL       printk_putc
        MOVS     R2,R5
        ADD      R1,SP,#+0
        MOVS     R0,#+10
        BL       printk_putc
??printk_6:
        B.N      ??printk_2
??printk_4:
        MOVS     R7,#+0
        MOVS     R1,#+0
        B.N      ??printk_7
??printk_8:
        ORRS     R7,R7,#0x1
??printk_7:
        CMP      R1,#+0
        BNE.N    ??printk_9
        ADDS     R4,R4,#+1
        LDRB     R0,[R4, #+0]
        CMP      R0,#+32
        BEQ.N    ??printk_10
        CMP      R0,#+35
        BEQ.N    ??printk_11
        CMP      R0,#+43
        BEQ.N    ??printk_12
        CMP      R0,#+45
        BEQ.N    ??printk_8
        CMP      R0,#+48
        BEQ.N    ??printk_13
        B.N      ??printk_14
??printk_12:
        ORRS     R7,R7,#0x2
        B.N      ??printk_7
??printk_10:
        ORRS     R7,R7,#0x4
        B.N      ??printk_7
??printk_13:
        ORRS     R7,R7,#0x8
        B.N      ??printk_7
??printk_11:
        ORRS     R7,R7,#0x10
        B.N      ??printk_7
??printk_14:
        SUBS     R4,R4,#+1
        MOVS     R1,#+1
        B.N      ??printk_7
??printk_9:
        MOVS     R8,#+0
        MOVS     R1,#+0
        B.N      ??printk_15
??printk_16:
        MOVS     R0,#+10
        MLA      R0,R0,R8,R3
        SUBS     R8,R0,#+48
??printk_15:
        CMP      R1,#+0
        BNE.N    ??printk_17
        ADDS     R4,R4,#+1
        LDRB     R3,[R4, #+0]
        MOVS     R0,R3
        SUBS     R0,R0,#+48
        CMP      R0,#+9
        BLS.N    ??printk_16
??printk_18:
        SUBS     R4,R4,#+1
        MOVS     R1,#+1
        B.N      ??printk_15
??printk_17:
        ADDS     R4,R4,#+1
        LDRB     R0,[R4, #+0]
        CMP      R0,#+46
        BNE.N    ??printk_19
        MOVS     R1,#+0
        B.N      ??printk_20
??printk_21:
??printk_20:
        CMP      R1,#+0
        BNE.N    ??printk_22
        ADDS     R4,R4,#+1
        LDRB     R0,[R4, #+0]
        SUBS     R0,R0,#+48
        CMP      R0,#+9
        BLS.N    ??printk_21
??printk_23:
        SUBS     R4,R4,#+1
        MOVS     R1,#+1
        B.N      ??printk_20
??printk_19:
        SUBS     R4,R4,#+1
??printk_22:
        ADDS     R4,R4,#+1
        LDRB     R0,[R4, #+0]
        CMP      R0,#+76
        BEQ.N    ??printk_24
        CMP      R0,#+104
        BEQ.N    ??printk_25
        CMP      R0,#+108
        BEQ.N    ??printk_26
        B.N      ??printk_27
??printk_25:
        B.N      ??printk_28
??printk_26:
        B.N      ??printk_28
??printk_24:
        B.N      ??printk_28
??printk_27:
        SUBS     R4,R4,#+1
??printk_28:
        ADDS     R4,R4,#+1
        LDRB     R3,[R4, #+0]
        MOVS     R0,R3
        CMP      R0,#+88
        BEQ.N    ??printk_29
        CMP      R0,#+98
        BEQ.W    ??printk_30
        CMP      R0,#+99
        BEQ.W    ??printk_31
        CMP      R0,#+100
        BEQ.N    ??printk_32
        CMP      R0,#+105
        BEQ.N    ??printk_32
        CMP      R0,#+110
        BEQ.W    ??printk_33
        CMP      R0,#+111
        BEQ.W    ??printk_34
        CMP      R0,#+112
        BEQ.W    ??printk_35
        CMP      R0,#+115
        BEQ.W    ??printk_36
        CMP      R0,#+117
        BEQ.W    ??printk_37
        CMP      R0,#+120
        BEQ.N    ??printk_29
        B.N      ??printk_1
??printk_32:
        LDR      R0,[R6, #+0]
        STR      R0,[SP, #+12]
        ADDS     R6,R6,#+4
        MOVS     R3,#+10
        MOVS     R2,#+1
        ADD      R1,SP,#+12
        ADD      R0,SP,#+16
        BL       printk_mknumstr
        MOV      R10,R0
        ADD      R0,SP,#+16
        ADDS     R9,R10,R0
        LDR      R0,[SP, #+12]
        CMP      R0,#+0
        BPL.N    ??printk_38
        MOVS     R0,#+45
        STR      R0,[SP, #+8]
        ADDS     R10,R10,#+1
        B.N      ??printk_39
??printk_38:
        LSLS     R0,R7,#+30
        BPL.N    ??printk_40
        MOVS     R0,#+43
        STR      R0,[SP, #+8]
        ADDS     R10,R10,#+1
        B.N      ??printk_39
??printk_40:
        LSLS     R0,R7,#+29
        BPL.N    ??printk_41
        MOVS     R0,#+32
        STR      R0,[SP, #+8]
        ADDS     R10,R10,#+1
        B.N      ??printk_39
??printk_41:
        MOVS     R0,#+0
        STR      R0,[SP, #+8]
??printk_39:
        MOVS     R11,#+0
        LSLS     R0,R7,#+28
        BPL.N    ??printk_42
        LDR      R0,[SP, #+8]
        CMP      R0,#+0
        BEQ.N    ??printk_43
        MOVS     R2,R5
        ADD      R1,SP,#+0
        LDR      R0,[SP, #+8]
        BL       printk_putc
??printk_43:
        MOVS     R11,#+1
        MOVS     R3,R5
        ADD      R2,SP,#+0
        MOV      R1,R8
        MOV      R0,R10
        BL       printk_pad_zero
        MOV      R10,R8
        B.N      ??printk_44
??printk_42:
        LSLS     R0,R7,#+31
        BMI.N    ??printk_44
        MOVS     R3,R5
        ADD      R2,SP,#+0
        MOV      R1,R8
        MOV      R0,R10
        BL       printk_pad_space
        LDR      R0,[SP, #+8]
        CMP      R0,#+0
        BEQ.N    ??printk_45
        MOVS     R2,R5
        ADD      R1,SP,#+0
        LDR      R0,[SP, #+8]
        BL       printk_putc
??printk_45:
        MOVS     R11,#+1
??printk_44:
        CMP      R11,#+0
        BNE.N    ??printk_46
        LDR      R0,[SP, #+8]
        CMP      R0,#+0
        BEQ.N    ??printk_46
        MOVS     R2,R5
        ADD      R1,SP,#+0
        LDR      R0,[SP, #+8]
        BL       printk_putc
??printk_46:
        B.N      ??printk_47
??printk_29:
        LDR      R0,[R6, #+0]
        STR      R0,[SP, #+4]
        ADDS     R6,R6,#+4
        MOVS     R3,#+16
        MOVS     R2,#+0
        ADD      R1,SP,#+4
        ADD      R0,SP,#+16
        BL       printk_mknumstr
        MOV      R10,R0
        ADD      R0,SP,#+16
        ADDS     R9,R10,R0
        MOVS     R11,#+0
        LSLS     R0,R7,#+28
        BPL.N    ??printk_48
        LSLS     R0,R7,#+27
        BPL.N    ??printk_49
        MOVS     R2,R5
        ADD      R1,SP,#+0
        MOVS     R0,#+48
        BL       printk_putc
        MOVS     R2,R5
        ADD      R1,SP,#+0
        MOVS     R0,#+120
        BL       printk_putc
        MOVS     R11,#+1
??printk_49:
        MOVS     R3,R5
        ADD      R2,SP,#+0
        MOV      R1,R8
        MOV      R0,R10
        BL       printk_pad_zero
        MOV      R10,R8
        B.N      ??printk_50
??printk_48:
        LSLS     R0,R7,#+31
        BMI.N    ??printk_50
        LSLS     R0,R7,#+27
        BPL.N    ??printk_51
        ADDS     R10,R10,#+2
??printk_51:
        MOVS     R3,R5
        ADD      R2,SP,#+0
        MOV      R1,R8
        MOV      R0,R10
        BL       printk_pad_space
        LSLS     R0,R7,#+27
        BPL.N    ??printk_50
        MOVS     R2,R5
        ADD      R1,SP,#+0
        MOVS     R0,#+48
        BL       printk_putc
        MOVS     R2,R5
        ADD      R1,SP,#+0
        MOVS     R0,#+120
        BL       printk_putc
        MOVS     R11,#+1
??printk_50:
        LSLS     R0,R7,#+27
        BPL.N    ??printk_52
        CMP      R11,#+0
        BNE.N    ??printk_52
        MOVS     R2,R5
        ADD      R1,SP,#+0
        MOVS     R0,#+48
        BL       printk_putc
        MOVS     R2,R5
        ADD      R1,SP,#+0
        MOVS     R0,#+120
        BL       printk_putc
        ADDS     R10,R10,#+2
??printk_52:
        B.N      ??printk_47
??printk_34:
        LDR      R0,[R6, #+0]
        STR      R0,[SP, #+4]
        ADDS     R6,R6,#+4
        MOVS     R3,#+8
        MOVS     R2,#+0
        ADD      R1,SP,#+4
        ADD      R0,SP,#+16
        BL       printk_mknumstr
        MOV      R10,R0
        B.N      ??printk_53
??printk_30:
        LDR      R0,[R6, #+0]
        STR      R0,[SP, #+4]
        ADDS     R6,R6,#+4
        MOVS     R3,#+2
        MOVS     R2,#+0
        ADD      R1,SP,#+4
        ADD      R0,SP,#+16
        BL       printk_mknumstr
        MOV      R10,R0
        B.N      ??printk_53
??printk_35:
        LDR      R0,[R6, #+0]
        STR      R0,[SP, #+4]
        ADDS     R6,R6,#+4
        MOVS     R3,#+16
        MOVS     R2,#+0
        ADD      R1,SP,#+4
        ADD      R0,SP,#+16
        BL       printk_mknumstr
        MOV      R10,R0
        B.N      ??printk_53
??printk_37:
        LDR      R0,[R6, #+0]
        STR      R0,[SP, #+4]
        ADDS     R6,R6,#+4
        MOVS     R3,#+10
        MOVS     R2,#+0
        ADD      R1,SP,#+4
        ADD      R0,SP,#+16
        BL       printk_mknumstr
        MOV      R10,R0
??printk_53:
        ADD      R0,SP,#+16
        ADDS     R9,R10,R0
        LSLS     R0,R7,#+28
        BPL.N    ??printk_54
        MOVS     R3,R5
        ADD      R2,SP,#+0
        MOV      R1,R8
        MOV      R0,R10
        BL       printk_pad_zero
        MOV      R10,R8
        B.N      ??printk_47
??printk_54:
        LSLS     R0,R7,#+31
        BMI.N    ??printk_47
        MOVS     R3,R5
        ADD      R2,SP,#+0
        MOV      R1,R8
        MOV      R0,R10
        BL       printk_pad_space
        B.N      ??printk_47
??printk_55:
        MOVS     R2,R5
        ADD      R1,SP,#+0
        LDRB     R0,[R9, #+0]
        BL       printk_putc
        SUBS     R9,R9,#+1
??printk_47:
        LDRB     R0,[R9, #+0]
        CMP      R0,#+0
        BNE.N    ??printk_55
        LSLS     R0,R7,#+31
        BPL.N    ??printk_56
        MOVS     R3,R5
        ADD      R2,SP,#+0
        MOV      R1,R8
        MOV      R0,R10
        BL       printk_pad_space
??printk_56:
        B.N      ??printk_2
??printk_31:
        LDRB     R0,[R6, #+0]
        ADDS     R6,R6,#+4
        MOVS     R2,R5
        ADD      R1,SP,#+0
        BL       printk_putc
        B.N      ??printk_2
??printk_36:
        LDR      R9,[R6, #+0]
        ADDS     R6,R6,#+4
        CMP      R9,#+0
        BEQ.N    ??printk_57
        MOV      R0,R9
        BL       strlen
        MOV      R10,R0
        LSLS     R0,R7,#+31
        BMI.N    ??printk_58
        MOVS     R3,R5
        ADD      R2,SP,#+0
        MOV      R1,R8
        MOV      R0,R10
        BL       printk_pad_space
        B.N      ??printk_58
??printk_59:
        MOVS     R2,R5
        ADD      R1,SP,#+0
        LDRB     R0,[R9, #+0]
        BL       printk_putc
        ADDS     R9,R9,#+1
??printk_58:
        LDRB     R0,[R9, #+0]
        CMP      R0,#+0
        BNE.N    ??printk_59
        LSLS     R0,R7,#+31
        BPL.N    ??printk_57
        MOVS     R3,R5
        ADD      R2,SP,#+0
        MOV      R1,R8
        MOV      R0,R10
        BL       printk_pad_space
??printk_57:
        B.N      ??printk_2
??printk_33:
        LDR      R0,[R6, #+0]
        ADDS     R6,R6,#+4
        LDR      R1,[SP, #+0]
        STR      R1,[R0, #+0]
        B.N      ??printk_2
//  565         }
//  566     }
//  567     return count;
??printk_3:
        LDR      R0,[SP, #+0]
        ADD      SP,SP,#+52
        POP      {R4-R11,PC}      ;; return
//  568 }
//  569 
//  570 /********************************************************************/

        SECTION `.text`:CODE:NOROOT(1)
        THUMB
//  571 int
//  572 printf (const char *fmt, ...)
//  573 {
printf:
        PUSH     {R1-R3}
        PUSH     {LR}
        SUB      SP,SP,#+16
//  574     va_list ap;
//  575     int rvalue;
//  576     PRINTK_INFO info;
//  577 
//  578 
//  579     info.dest = DEST_CONSOLE;
        MOVS     R1,#+1
        STR      R1,[SP, #+0]
//  580     info.func = &out_char;
        LDR.N    R1,??DataTable0
        STR      R1,[SP, #+4]
//  581     /*
//  582      * Initialize the pointer to the variable length argument list.
//  583      */
//  584     va_start(ap, fmt);
        ADD      R2,SP,#+20
//  585     rvalue = printk(&info, fmt, ap);
        MOVS     R1,R0
        ADD      R0,SP,#+0
        BL       printk
//  586     /*
//  587      * Cleanup the variable length argument list.
//  588      */
//  589     va_end(ap);
//  590     return rvalue;
        ADD      SP,SP,#+16
        LDR      PC,[SP], #+16    ;; return
//  591 }

        SECTION `.text`:CODE:NOROOT(2)
        SECTION_TYPE SHT_PROGBITS, 0
        DATA
??DataTable0:
        DC32     out_char
//  592 
//  593 /********************************************************************/

        SECTION `.text`:CODE:NOROOT(1)
        THUMB
//  594 int
//  595 sprintf (char *s, const char *fmt, ...)
//  596 {
sprintf:
        PUSH     {R2,R3}
        PUSH     {R5-R7,LR}
        MOVS     R2,R0
//  597     va_list ap;
//  598     int rvalue = 0;
        MOVS     R0,#+0
//  599     PRINTK_INFO info;
//  600 
//  601     /*
//  602      * Initialize the pointer to the variable length argument list.
//  603      */
//  604     if (s != 0)
        CMP      R2,#+0
        BEQ.N    ??sprintf_0
//  605     {
//  606         info.dest = DEST_STRING;
        MOVS     R0,#+2
        STR      R0,[SP, #+0]
//  607         info.loc = s;
        STR      R2,[SP, #+8]
//  608         va_start(ap, fmt);
        ADD      R2,SP,#+16
//  609         rvalue = printk(&info, fmt, ap);
        ADD      R0,SP,#+0
        BL       printk
//  610         *info.loc = '\0';
        LDR      R1,[SP, #+8]
        MOVS     R2,#+0
        STRB     R2,[R1, #+0]
//  611         va_end(ap);
//  612     }
//  613     return rvalue;
??sprintf_0:
        POP      {R1-R3}
        LDR      PC,[SP], #+12    ;; return
//  614 }

        SECTION `.iar_vfe_header`:DATA:REORDER:NOALLOC:NOROOT(2)
        SECTION_TYPE SHT_PROGBITS, 0
        DATA
        DC32 0

        SECTION __DLIB_PERTHREAD:DATA:REORDER:NOROOT(0)
        SECTION_TYPE SHT_PROGBITS, 0

        SECTION __DLIB_PERTHREAD_init:DATA:REORDER:NOROOT(0)
        SECTION_TYPE SHT_PROGBITS, 0

        END
//  615 
//  616 /********************************************************************/
// 
// 1 232 bytes in section .text
// 
// 1 232 bytes of CODE memory
//
//Errors: none
//Warnings: none
